target datalayout = "e-m:e-p270:32:32-p271:32:32-p272:64:64-i64:64-i128:128-f80:128-n8:16:32:64-S128"
target triple = "x86_64-pc-linux-gnu"

; Function Attrs: nounwind uwtable
define hidden void @drwav_u8_to_s16(ptr noundef %0, ptr noundef %1, i64 noundef %2) #0 {
  %4 = alloca ptr, align 8
  %5 = alloca ptr, align 8
  %6 = alloca i64, align 8
  %7 = alloca i32, align 4
  %8 = alloca i64, align 8
  %9 = alloca i32, align 4
  store ptr %0, ptr %4, align 8
  store ptr %1, ptr %5, align 8
  store i64 %2, ptr %6, align 8
  call void @llvm.lifetime.start.p0(i64 4, ptr %7) #21
  call void @llvm.lifetime.start.p0(i64 8, ptr %8) #21
  store i64 0, ptr %8, align 8
  br label %10

10:                                               ; preds = %29, %3
  %11 = load i64, ptr %8, align 8
  %12 = load i64, ptr %6, align 8
  %13 = icmp ult i64 %11, %12
  br i1 %13, label %14, label %32

14:                                               ; preds = %10
  call void @llvm.lifetime.start.p0(i64 4, ptr %9) #21
  %15 = load ptr, ptr %5, align 8
  %16 = load i64, ptr %8, align 8
  %17 = getelementptr inbounds nuw i8, ptr %15, i64 %16
  %18 = load i8, ptr %17, align 1
  %19 = zext i8 %18 to i32
  store i32 %19, ptr %9, align 4
  %20 = load i32, ptr %9, align 4
  %21 = shl i32 %20, 8
  store i32 %21, ptr %7, align 4
  %22 = load i32, ptr %7, align 4
  %23 = sub nsw i32 %22, 32768
  store i32 %23, ptr %7, align 4
  %24 = load i32, ptr %7, align 4
  %25 = trunc i32 %24 to i16
  %26 = load ptr, ptr %4, align 8
  %27 = load i64, ptr %8, align 8
  %28 = getelementptr inbounds nuw i16, ptr %26, i64 %27
  store i16 %25, ptr %28, align 2
  call void @llvm.lifetime.end.p0(i64 4, ptr %9) #21
  br label %29

29:                                               ; preds = %14
  %30 = load i64, ptr %8, align 8
  %31 = add i64 %30, 1
  store i64 %31, ptr %8, align 8
  br label %10

32:                                               ; preds = %10
  call void @llvm.lifetime.end.p0(i64 8, ptr %8) #21
  call void @llvm.lifetime.end.p0(i64 4, ptr %7) #21
  ret void
}